OCSP Response Data:
    OCSP Response Status: successful (0x0)
    Response Type: Basic OCSP Response
    Version: 1 (0x0)
    Responder Id: C = US, ST = California, L = San Francisco, O = Lyft, OU = Lyft Engineering, CN = ca
    Produced At: Apr  8 17:33:49 2026 GMT
    Responses:
    Certificate ID:
      Hash Algorithm: sha1
      Issuer Name Hash: 16C50680A809B68F302789AB234F8F4B30B0E06C
      Issuer Key Hash: 5E9E61E8A83AB336656A69BD2C9055F1CE9F614D
      Serial Number: 1000
    Cert Status: good
    This Update: Apr  8 17:33:49 2026 GMT
    Next Update: Apr  5 17:33:49 2036 GMT

    Response Extensions:
        OCSP Nonce: 
            041023FCE11FFB3FD7DC6A4C80527F3C4900
    Signature Algorithm: sha256WithRSAEncryption
    Signature Value:
        72:0c:af:4d:e9:a9:54:96:da:10:ea:d7:cd:58:9c:03:95:5f:
        46:5f:51:6a:65:1a:d5:1a:a2:dc:d7:22:72:eb:1e:a7:3b:2f:
        ab:3a:26:ab:d6:e7:2c:69:92:64:af:a8:ed:5d:a4:6f:59:6a:
        a4:49:f7:4b:94:57:d1:12:59:77:0a:02:4a:0c:6b:ee:d8:e5:
        be:35:2d:b7:0d:7c:93:b0:ee:0e:78:91:c3:0b:0b:ee:8e:af:
        83:ce:99:ac:48:72:92:bb:f8:88:7f:a9:c8:20:35:c7:65:b1:
        ee:ef:31:8b:e5:6d:3f:1d:81:63:63:36:c5:37:cc:20:20:4d:
        9b:cc:44:9e:d6:ca:18:b3:19:9a:f8:3a:1b:8e:5c:f5:bf:03:
        75:d3:04:4c:c1:bb:46:65:d1:fb:59:7e:a6:5d:7a:d0:a1:a3:
        cb:68:4e:00:0e:36:e9:5f:5d:23:fd:81:3d:80:42:d7:0b:de:
        cf:bf:df:b6:52:52:26:0f:f4:0a:74:49:af:9a:c4:32:83:a5:
        41:de:82:8e:03:20:f9:68:a7:fc:c4:a7:32:97:16:af:14:33:
        e1:a1:57:0c:74:64:19:c2:d3:f4:1c:72:48:f5:1e:0e:9d:28:
        fc:d9:f0:83:59:0e:6f:c9:6c:66:dd:8c:8f:33:15:77:d3:80:
        0b:a1:0f:1f
Certificate:
    Data:
        Version: 3 (0x2)
        Serial Number:
            7b:85:6a:39:0d:e9:a4:44:a4:f5:02:db:08:72:87:16:4f:11:61:75
        Signature Algorithm: sha256WithRSAEncryption
        Issuer: C=US, ST=California, L=San Francisco, O=Lyft, OU=Lyft Engineering, CN=ca
        Validity
            Not Before: Apr  8 17:33:48 2026 GMT
            Not After : Apr  5 17:33:48 2036 GMT
        Subject: C=US, ST=California, L=San Francisco, O=Lyft, OU=Lyft Engineering, CN=ca
        Subject Public Key Info:
            Public Key Algorithm: rsaEncryption
                Public-Key: (2048 bit)
                Modulus:
                    00:c7:57:e7:c0:e0:8e:31:4b:76:a8:27:31:7f:18:
                    1f:45:64:28:e4:12:da:af:88:9d:58:1b:00:a1:2d:
                    37:6b:29:f5:f6:3d:80:26:53:f1:38:f9:b2:36:03:
                    40:b3:65:69:4f:81:72:de:59:ee:2a:16:69:43:2c:
                    15:56:36:be:d0:c6:7d:76:1e:f7:b6:a2:31:45:81:
                    42:04:87:54:4d:65:09:49:f9:98:14:75:bb:4d:ad:
                    53:78:88:ef:fb:5a:9e:ed:97:37:96:f1:95:85:94:
                    1a:59:88:31:3b:ea:87:45:c5:f6:bf:e6:cd:58:de:
                    7a:be:cc:11:fc:d8:08:2d:b9:1d:d7:0b:33:8d:ca:
                    2e:13:91:be:76:32:02:69:86:3d:13:48:79:c5:91:
                    0a:e7:21:94:ed:09:1e:fc:36:53:dc:cf:7b:2e:c4:
                    2d:61:87:77:aa:4d:de:f5:a4:6e:fe:95:20:4d:37:
                    3d:f1:0d:22:a0:01:36:c2:05:d7:f5:f5:2c:c8:42:
                    b7:e9:b6:1f:13:09:a2:8f:56:bd:20:94:29:16:5d:
                    06:46:a0:22:c2:12:47:63:60:9d:a5:5e:6d:0a:4e:
                    61:b0:7c:72:be:c8:28:a4:85:18:53:1f:c5:ae:02:
                    37:1b:fe:12:3e:2c:cb:4d:b7:4b:51:de:52:d0:76:
                    d5:e9
                Exponent: 65537 (0x10001)
        X509v3 extensions:
            X509v3 Subject Key Identifier: 
                5E:9E:61:E8:A8:3A:B3:36:65:6A:69:BD:2C:90:55:F1:CE:9F:61:4D
            X509v3 Authority Key Identifier: 
                5E:9E:61:E8:A8:3A:B3:36:65:6A:69:BD:2C:90:55:F1:CE:9F:61:4D
            X509v3 Basic Constraints: critical
                CA:TRUE
            X509v3 Key Usage: critical
                Digital Signature, Certificate Sign, CRL Sign
    Signature Algorithm: sha256WithRSAEncryption
    Signature Value:
        45:ee:8f:a7:03:bb:fb:56:4d:7b:77:43:82:7f:fd:39:53:75:
        b0:1b:8b:5b:37:03:09:aa:d8:3f:cd:17:39:e8:1e:4c:72:27:
        aa:f5:75:19:66:34:55:92:a8:91:91:08:d8:c2:10:05:e2:3e:
        b1:c7:bd:9e:85:19:2b:6e:97:5d:8d:11:27:7c:81:fa:5f:25:
        f5:b2:6e:62:51:35:d0:ee:50:ea:3e:a8:f3:52:35:07:6d:0e:
        70:3a:3f:2e:7d:71:d9:bc:20:7c:80:25:e2:5a:fa:82:be:bb:
        18:bf:a4:c9:5f:9b:9d:71:b8:c8:5e:69:29:ed:51:c1:c6:1b:
        53:fc:1c:df:59:2b:14:b1:b6:b0:9c:5a:94:20:52:4e:5e:cd:
        b1:9f:d0:af:95:28:c0:4c:37:5d:6f:14:5b:80:56:8b:d2:2f:
        05:4f:55:88:9e:ad:e4:b8:52:24:6f:e0:e6:39:4f:10:40:31:
        cd:d9:c3:f4:f5:76:85:62:f9:66:b3:0c:79:a6:61:6e:a6:fa:
        ca:14:4c:39:05:64:71:48:84:93:e9:34:9e:95:53:e9:a4:77:
        2c:57:34:a8:a8:2d:1a:99:9c:a6:99:39:03:4d:b9:b2:87:55:
        52:cd:c2:56:2d:fe:ac:93:a7:46:92:ee:1f:ce:4e:66:15:3b:
        60:c3:e7:3b
-----BEGIN CERTIFICATE-----
MIID0zCCArugAwIBAgIUe4VqOQ3ppESk9QLbCHKHFk8RYXUwDQYJKoZIhvcNAQEL
BQAwcTELMAkGA1UEBhMCVVMxEzARBgNVBAgMCkNhbGlmb3JuaWExFjAUBgNVBAcM
DVNhbiBGcmFuY2lzY28xDTALBgNVBAoMBEx5ZnQxGTAXBgNVBAsMEEx5ZnQgRW5n
aW5lZXJpbmcxCzAJBgNVBAMMAmNhMB4XDTI2MDQwODE3MzM0OFoXDTM2MDQwNTE3
MzM0OFowcTELMAkGA1UEBhMCVVMxEzARBgNVBAgMCkNhbGlmb3JuaWExFjAUBgNV
BAcMDVNhbiBGcmFuY2lzY28xDTALBgNVBAoMBEx5ZnQxGTAXBgNVBAsMEEx5ZnQg
RW5naW5lZXJpbmcxCzAJBgNVBAMMAmNhMIIBIjANBgkqhkiG9w0BAQEFAAOCAQ8A
MIIBCgKCAQEAx1fnwOCOMUt2qCcxfxgfRWQo5BLar4idWBsAoS03ayn19j2AJlPx
OPmyNgNAs2VpT4Fy3lnuKhZpQywVVja+0MZ9dh73tqIxRYFCBIdUTWUJSfmYFHW7
Ta1TeIjv+1qe7Zc3lvGVhZQaWYgxO+qHRcX2v+bNWN56vswR/NgILbkd1wszjcou
E5G+djICaYY9E0h5xZEK5yGU7Qke/DZT3M97LsQtYYd3qk3e9aRu/pUgTTc98Q0i
oAE2wgXX9fUsyEK36bYfEwmij1a9IJQpFl0GRqAiwhJHY2CdpV5tCk5hsHxyvsgo
pIUYUx/FrgI3G/4SPizLTbdLUd5S0HbV6QIDAQABo2MwYTAdBgNVHQ4EFgQUXp5h
6Kg6szZlamm9LJBV8c6fYU0wHwYDVR0jBBgwFoAUXp5h6Kg6szZlamm9LJBV8c6f
YU0wDwYDVR0TAQH/BAUwAwEB/zAOBgNVHQ8BAf8EBAMCAYYwDQYJKoZIhvcNAQEL
BQADggEBAEXuj6cDu/tWTXt3Q4J//TlTdbAbi1s3Awmq2D/NFznoHkxyJ6r1dRlm
NFWSqJGRCNjCEAXiPrHHvZ6FGStul12NESd8gfpfJfWybmJRNdDuUOo+qPNSNQdt
DnA6Py59cdm8IHyAJeJa+oK+uxi/pMlfm51xuMheaSntUcHGG1P8HN9ZKxSxtrCc
WpQgUk5ezbGf0K+VKMBMN11vFFuAVovSLwVPVYiereS4UiRv4OY5TxBAMc3Zw/T1
doVi+WazDHmmYW6m+soUTDkFZHFIhJPpNJ6VU+mkdyxXNKioLRqZnKaZOQNNubKH
VVLNwlYt/qyTp0aS7h/OTmYVO2DD5zs=
-----END CERTIFICATE-----
